; Function Attrs: norecurse nounwind uwtable
define internal void @_ZN6OctreeIfE15getMCIsoSurfaceILi2EL12BoundaryType2ELi2ELi1E22PlyColorAndValueVertexIfEEEvPKNS0_16DensityEstimatorIXT1_EEEPK14SparseNodeDataI14ProjectiveDataI7Point3DIfEfEXT2_EERK13DenseNodeDataIfXT_EEfR13CoredMeshDataIT3_Ebbb.omp_outlined(ptr noalias nocapture noundef readonly %0, ptr noalias nocapture readnone %1, ptr nocapture noundef readonly %2, ptr nocapture noundef nonnull readonly align 8 dereferenceable(16) %3, ptr nocapture noundef nonnull readonly align 8 dereferenceable(16) %4) #23 personality ptr @__gxx_personality_v0 {
  %6 = alloca i32, align 4
  %7 = alloca i32, align 4
  %8 = alloca i32, align 4
  %9 = alloca i32, align 4
  %10 = getelementptr inbounds i8, ptr %2, i64 16
  %11 = getelementptr inbounds i8, ptr %2, i64 48
  %12 = load i32, ptr %11, align 8
  %13 = load ptr, ptr %10, align 8
  %14 = sext i32 %12 to i64
  %15 = getelementptr inbounds ptr, ptr %13, i64 %14
  %16 = load ptr, ptr %15, align 8
  %17 = load i32, ptr %16, align 4
  %18 = getelementptr inbounds i8, ptr %2, i64 44
  %19 = load i32, ptr %18, align 4
  %20 = add i32 %12, -1
  %21 = add i32 %20, %19
  %22 = sext i32 %21 to i64
  %23 = getelementptr inbounds ptr, ptr %13, i64 %22
  %24 = load ptr, ptr %23, align 8
  %25 = zext nneg i32 %21 to i64
  %26 = shl nuw i64 1, %25
  %27 = getelementptr inbounds i32, ptr %24, i64 %26
  %28 = load i32, ptr %27, align 4
  %29 = icmp slt i32 %17, %28
  br i1 %29, label %30, label %53

30:                                               ; preds = %5
  %31 = xor i32 %17, -1
  %32 = add i32 %28, %31
  store i32 0, ptr %6, align 4
  store i32 %32, ptr %7, align 4
  store i32 1, ptr %8, align 4
  store i32 0, ptr %9, align 4
  %33 = load i32, ptr %0, align 4
  call void @__kmpc_for_static_init_4u(ptr nonnull @1, i32 %33, i32 34, ptr nonnull %9, ptr nonnull %6, ptr nonnull %7, ptr nonnull %8, i32 1, i32 1)
  %34 = load i32, ptr %7, align 4
  %35 = call i32 @llvm.umin.i32(i32 %34, i32 %32)
  store i32 %35, ptr %7, align 4
  %36 = load i32, ptr %6, align 4
  %37 = add i32 %35, 1
  %38 = icmp ult i32 %36, %37
  br i1 %38, label %.lr.ph, label %._crit_edge

.lr.ph:                                           ; preds = %30
  %39 = getelementptr inbounds i8, ptr %4, i64 8
  %40 = getelementptr inbounds i8, ptr %3, i64 8
  br label %41

41:                                               ; preds = %.lr.ph, %41
  %.020 = phi i32 [ %36, %.lr.ph ], [ %49, %41 ]
  %42 = add i32 %.020, %17
  %43 = load ptr, ptr %39, align 8
  %44 = sext i32 %42 to i64
  %45 = getelementptr inbounds float, ptr %43, i64 %44
  %46 = load float, ptr %45, align 4
  %47 = load ptr, ptr %40, align 8
  %48 = getelementptr inbounds float, ptr %47, i64 %44
  store float %46, ptr %48, align 4
  %49 = add nuw i32 %.020, 1
  %50 = load i32, ptr %7, align 4
  %51 = add i32 %50, 1
  %52 = icmp ult i32 %49, %51
  br i1 %52, label %41, label %._crit_edge

._crit_edge:                                      ; preds = %41, %30
  call void @__kmpc_for_static_fini(ptr nonnull @1, i32 %33)
  br label %53

53:                                               ; preds = %._crit_edge, %5
  ret void
}